; Function Attrs: nounwind uwtable
define ptr @l_Lean_SMap_instForInProd___rarg___lambda__3(ptr noundef %0, ptr noundef %1) #0 {
  %3 = ptrtoint ptr %1 to i64
  %4 = and i64 %3, 1
  %.not.i53 = icmp eq i64 %4, 0
  br i1 %.not.i53, label %8, label %5

5:                                                ; preds = %2
  %6 = lshr i64 %3, 1
  %7 = trunc i64 %6 to i32
  br label %lean_obj_tag.exit

8:                                                ; preds = %2
  %9 = getelementptr i8, ptr %1, i64 4
  %.val.i = load i32, ptr %9, align 4
  %10 = lshr i32 %.val.i, 24
  br label %lean_obj_tag.exit

lean_obj_tag.exit:                                ; preds = %5, %8
  %.0.i = phi i32 [ %7, %5 ], [ %10, %8 ]
  %11 = icmp eq i32 %.0.i, 0
  %12 = getelementptr inbounds nuw i8, ptr %1, i64 8
  %13 = load ptr, ptr %12, align 8, !tbaa !4
  %14 = ptrtoint ptr %13 to i64
  %15 = and i64 %14, 1
  %.not79 = icmp eq i64 %15, 0
  br i1 %11, label %16, label %67

16:                                               ; preds = %lean_obj_tag.exit
  br i1 %.not79, label %17, label %lean_inc.exit40

17:                                               ; preds = %16
  %.val.i54 = load i32, ptr %13, align 4, !tbaa !10
  %18 = icmp sgt i32 %.val.i54, 0
  br i1 %18, label %19, label %21, !prof !15

19:                                               ; preds = %17
  %20 = add nuw i32 %.val.i54, 1
  store i32 %20, ptr %13, align 4, !tbaa !10
  br label %lean_inc.exit40

21:                                               ; preds = %17
  %.not.i55 = icmp eq i32 %.val.i54, 0
  br i1 %.not.i55, label %lean_inc.exit40, label %22

22:                                               ; preds = %21
  tail call void @lean_inc_ref_cold(ptr noundef nonnull %13) #3
  br label %lean_inc.exit40

lean_inc.exit40:                                  ; preds = %22, %21, %19, %16
  br i1 %.not.i53, label %23, label %lean_dec.exit34

23:                                               ; preds = %lean_inc.exit40
  %24 = load i32, ptr %1, align 4, !tbaa !10
  %25 = icmp sgt i32 %24, 1
  br i1 %25, label %26, label %28, !prof !15

26:                                               ; preds = %23
  %27 = add nsw i32 %24, -1
  store i32 %27, ptr %1, align 4, !tbaa !10
  br label %lean_dec.exit34

28:                                               ; preds = %23
  %.not.i = icmp eq i32 %24, 0
  br i1 %.not.i, label %lean_dec.exit34, label %29

29:                                               ; preds = %28
  tail call void @lean_dec_ref_cold(ptr noundef nonnull %1) #3
  br label %lean_dec.exit34

lean_dec.exit34:                                  ; preds = %29, %28, %26, %lean_inc.exit40
  %30 = getelementptr inbounds nuw i8, ptr %0, i64 8
  %31 = load ptr, ptr %30, align 8, !tbaa !4
  %32 = ptrtoint ptr %31 to i64
  %33 = and i64 %32, 1
  %.not81 = icmp eq i64 %33, 0
  br i1 %.not81, label %34, label %lean_inc.exit39

34:                                               ; preds = %lean_dec.exit34
  %.val.i56 = load i32, ptr %31, align 4, !tbaa !10
  %35 = icmp sgt i32 %.val.i56, 0
  br i1 %35, label %36, label %38, !prof !15

36:                                               ; preds = %34
  %37 = add nuw i32 %.val.i56, 1
  store i32 %37, ptr %31, align 4, !tbaa !10
  br label %lean_inc.exit39

38:                                               ; preds = %34
  %.not.i57 = icmp eq i32 %.val.i56, 0
  br i1 %.not.i57, label %lean_inc.exit39, label %39

39:                                               ; preds = %38
  tail call void @lean_inc_ref_cold(ptr noundef nonnull %31) #3
  br label %lean_inc.exit39

lean_inc.exit39:                                  ; preds = %39, %38, %36, %lean_dec.exit34
  %40 = ptrtoint ptr %0 to i64
  %41 = and i64 %40, 1
  %.not82 = icmp eq i64 %41, 0
  br i1 %.not82, label %42, label %lean_dec.exit33

42:                                               ; preds = %lean_inc.exit39
  %43 = load i32, ptr %0, align 4, !tbaa !10
  %44 = icmp sgt i32 %43, 1
  br i1 %44, label %45, label %47, !prof !15

45:                                               ; preds = %42
  %46 = add nsw i32 %43, -1
  store i32 %46, ptr %0, align 4, !tbaa !10
  br label %lean_dec.exit33

47:                                               ; preds = %42
  %.not.i41 = icmp eq i32 %43, 0
  br i1 %.not.i41, label %lean_dec.exit33, label %48

48:                                               ; preds = %47
  tail call void @lean_dec_ref_cold(ptr noundef nonnull %0) #3
  br label %lean_dec.exit33

lean_dec.exit33:                                  ; preds = %48, %47, %45, %lean_inc.exit39
  %49 = getelementptr inbounds nuw i8, ptr %31, i64 16
  %50 = load ptr, ptr %49, align 8, !tbaa !4
  %51 = ptrtoint ptr %50 to i64
  %52 = and i64 %51, 1
  %.not83 = icmp eq i64 %52, 0
  br i1 %.not83, label %53, label %lean_inc.exit38

53:                                               ; preds = %lean_dec.exit33
  %.val.i59 = load i32, ptr %50, align 4, !tbaa !10
  %54 = icmp sgt i32 %.val.i59, 0
  br i1 %54, label %55, label %57, !prof !15

55:                                               ; preds = %53
  %56 = add nuw i32 %.val.i59, 1
  store i32 %56, ptr %50, align 4, !tbaa !10
  br label %lean_inc.exit38

57:                                               ; preds = %53
  %.not.i60 = icmp eq i32 %.val.i59, 0
  br i1 %.not.i60, label %lean_inc.exit38, label %58

58:                                               ; preds = %57
  tail call void @lean_inc_ref_cold(ptr noundef nonnull %50) #3
  br label %lean_inc.exit38

lean_inc.exit38:                                  ; preds = %58, %57, %55, %lean_dec.exit33
  br i1 %.not81, label %59, label %lean_dec.exit32

59:                                               ; preds = %lean_inc.exit38
  %60 = load i32, ptr %31, align 4, !tbaa !10
  %61 = icmp sgt i32 %60, 1
  br i1 %61, label %62, label %64, !prof !15

62:                                               ; preds = %59
  %63 = add nsw i32 %60, -1
  store i32 %63, ptr %31, align 4, !tbaa !10
  br label %lean_dec.exit32

64:                                               ; preds = %59
  %.not.i43 = icmp eq i32 %60, 0
  br i1 %.not.i43, label %lean_dec.exit32, label %65

65:                                               ; preds = %64
  tail call void @lean_dec_ref_cold(ptr noundef nonnull %31) #3
  br label %lean_dec.exit32

lean_dec.exit32:                                  ; preds = %65, %64, %62, %lean_inc.exit38
  %66 = tail call ptr @lean_apply_2(ptr noundef %50, ptr noundef nonnull inttoptr (i64 1 to ptr), ptr noundef %13) #3
  br label %135

67:                                               ; preds = %lean_obj_tag.exit
  br i1 %.not79, label %68, label %lean_inc.exit37

68:                                               ; preds = %67
  %.val.i62 = load i32, ptr %13, align 4, !tbaa !10
  %69 = icmp sgt i32 %.val.i62, 0
  br i1 %69, label %70, label %72, !prof !15

70:                                               ; preds = %68
  %71 = add nuw i32 %.val.i62, 1
  store i32 %71, ptr %13, align 4, !tbaa !10
  br label %lean_inc.exit37

72:                                               ; preds = %68
  %.not.i63 = icmp eq i32 %.val.i62, 0
  br i1 %.not.i63, label %lean_inc.exit37, label %73

73:                                               ; preds = %72
  tail call void @lean_inc_ref_cold(ptr noundef nonnull %13) #3
  br label %lean_inc.exit37

lean_inc.exit37:                                  ; preds = %73, %72, %70, %67
  br i1 %.not.i53, label %74, label %lean_dec.exit31

74:                                               ; preds = %lean_inc.exit37
  %75 = load i32, ptr %1, align 4, !tbaa !10
  %76 = icmp sgt i32 %75, 1
  br i1 %76, label %77, label %79, !prof !15

77:                                               ; preds = %74
  %78 = add nsw i32 %75, -1
  store i32 %78, ptr %1, align 4, !tbaa !10
  br label %lean_dec.exit31

79:                                               ; preds = %74
  %.not.i45 = icmp eq i32 %75, 0
  br i1 %.not.i45, label %lean_dec.exit31, label %80

80:                                               ; preds = %79
  tail call void @lean_dec_ref_cold(ptr noundef nonnull %1) #3
  br label %lean_dec.exit31

lean_dec.exit31:                                  ; preds = %80, %79, %77, %lean_inc.exit37
  %81 = getelementptr inbounds nuw i8, ptr %0, i64 8
  %82 = load ptr, ptr %81, align 8, !tbaa !4
  %83 = ptrtoint ptr %82 to i64
  %84 = and i64 %83, 1
  %.not75 = icmp eq i64 %84, 0
  br i1 %.not75, label %85, label %lean_inc.exit36

85:                                               ; preds = %lean_dec.exit31
  %.val.i65 = load i32, ptr %82, align 4, !tbaa !10
  %86 = icmp sgt i32 %.val.i65, 0
  br i1 %86, label %87, label %89, !prof !15

87:                                               ; preds = %85
  %88 = add nuw i32 %.val.i65, 1
  store i32 %88, ptr %82, align 4, !tbaa !10
  br label %lean_inc.exit36

89:                                               ; preds = %85
  %.not.i66 = icmp eq i32 %.val.i65, 0
  br i1 %.not.i66, label %lean_inc.exit36, label %90

90:                                               ; preds = %89
  tail call void @lean_inc_ref_cold(ptr noundef nonnull %82) #3
  br label %lean_inc.exit36

lean_inc.exit36:                                  ; preds = %90, %89, %87, %lean_dec.exit31
  %91 = ptrtoint ptr %0 to i64
  %92 = and i64 %91, 1
  %.not76 = icmp eq i64 %92, 0
  br i1 %.not76, label %93, label %lean_dec.exit30

93:                                               ; preds = %lean_inc.exit36
  %94 = load i32, ptr %0, align 4, !tbaa !10
  %95 = icmp sgt i32 %94, 1
  br i1 %95, label %96, label %98, !prof !15

96:                                               ; preds = %93
  %97 = add nsw i32 %94, -1
  store i32 %97, ptr %0, align 4, !tbaa !10
  br label %lean_dec.exit30

98:                                               ; preds = %93
  %.not.i47 = icmp eq i32 %94, 0
  br i1 %.not.i47, label %lean_dec.exit30, label %99

99:                                               ; preds = %98
  tail call void @lean_dec_ref_cold(ptr noundef nonnull %0) #3
  br label %lean_dec.exit30

lean_dec.exit30:                                  ; preds = %99, %98, %96, %lean_inc.exit36
  %100 = getelementptr inbounds nuw i8, ptr %82, i64 16
  %101 = load ptr, ptr %100, align 8, !tbaa !4
  %102 = ptrtoint ptr %101 to i64
  %103 = and i64 %102, 1
  %.not77 = icmp eq i64 %103, 0
  br i1 %.not77, label %104, label %lean_inc.exit35

104:                                              ; preds = %lean_dec.exit30
  %.val.i68 = load i32, ptr %101, align 4, !tbaa !10
  %105 = icmp sgt i32 %.val.i68, 0
  br i1 %105, label %106, label %108, !prof !15

106:                                              ; preds = %104
  %107 = add nuw i32 %.val.i68, 1
  store i32 %107, ptr %101, align 4, !tbaa !10
  br label %lean_inc.exit35

108:                                              ; preds = %104
  %.not.i69 = icmp eq i32 %.val.i68, 0
  br i1 %.not.i69, label %lean_inc.exit35, label %109

109:                                              ; preds = %108
  tail call void @lean_inc_ref_cold(ptr noundef nonnull %101) #3
  br label %lean_inc.exit35

lean_inc.exit35:                                  ; preds = %109, %108, %106, %lean_dec.exit30
  br i1 %.not75, label %110, label %lean_dec.exit29

110:                                              ; preds = %lean_inc.exit35
  %111 = load i32, ptr %82, align 4, !tbaa !10
  %112 = icmp sgt i32 %111, 1
  br i1 %112, label %113, label %115, !prof !15

113:                                              ; preds = %110
  %114 = add nsw i32 %111, -1
  store i32 %114, ptr %82, align 4, !tbaa !10
  br label %lean_dec.exit29

115:                                              ; preds = %110
  %.not.i49 = icmp eq i32 %111, 0
  br i1 %.not.i49, label %lean_dec.exit29, label %116

116:                                              ; preds = %115
  tail call void @lean_dec_ref_cold(ptr noundef nonnull %82) #3
  br label %lean_dec.exit29

lean_dec.exit29:                                  ; preds = %116, %115, %113, %lean_inc.exit35
  %117 = getelementptr inbounds nuw i8, ptr %13, i64 16
  %118 = load ptr, ptr %117, align 8, !tbaa !4
  %119 = ptrtoint ptr %118 to i64
  %120 = and i64 %119, 1
  %.not78 = icmp eq i64 %120, 0
  br i1 %.not78, label %121, label %lean_inc.exit

121:                                              ; preds = %lean_dec.exit29
  %.val.i71 = load i32, ptr %118, align 4, !tbaa !10
  %122 = icmp sgt i32 %.val.i71, 0
  br i1 %122, label %123, label %125, !prof !15

123:                                              ; preds = %121
  %124 = add nuw i32 %.val.i71, 1
  store i32 %124, ptr %118, align 4, !tbaa !10
  br label %lean_inc.exit

125:                                              ; preds = %121
  %.not.i72 = icmp eq i32 %.val.i71, 0
  br i1 %.not.i72, label %lean_inc.exit, label %126

126:                                              ; preds = %125
  tail call void @lean_inc_ref_cold(ptr noundef nonnull %118) #3
  br label %lean_inc.exit

lean_inc.exit:                                    ; preds = %126, %125, %123, %lean_dec.exit29
  br i1 %.not79, label %127, label %lean_dec.exit

127:                                              ; preds = %lean_inc.exit
  %128 = load i32, ptr %13, align 4, !tbaa !10
  %129 = icmp sgt i32 %128, 1
  br i1 %129, label %130, label %132, !prof !15

130:                                              ; preds = %127
  %131 = add nsw i32 %128, -1
  store i32 %131, ptr %13, align 4, !tbaa !10
  br label %lean_dec.exit

132:                                              ; preds = %127
  %.not.i51 = icmp eq i32 %128, 0
  br i1 %.not.i51, label %lean_dec.exit, label %133

133:                                              ; preds = %132
  tail call void @lean_dec_ref_cold(ptr noundef nonnull %13) #3
  br label %lean_dec.exit

lean_dec.exit:                                    ; preds = %133, %132, %130, %lean_inc.exit
  %134 = tail call ptr @lean_apply_2(ptr noundef %101, ptr noundef nonnull inttoptr (i64 1 to ptr), ptr noundef %118) #3
  br label %135

135:                                              ; preds = %lean_dec.exit, %lean_dec.exit32
  %.0 = phi ptr [ %66, %lean_dec.exit32 ], [ %134, %lean_dec.exit ]
  ret ptr %.0
}